target datalayout = "e-m:e-p270:32:32-p271:32:32-p272:64:64-i64:64-i128:128-f80:128-n8:16:32:64-S128"
target triple = "x86_64-pc-linux-gnu"

@.str.350 = private unnamed_addr constant [27 x i8] c"%.3f symbols ( ~ %.3f ms )\00", align 1

; Function Attrs: null_pointer_is_valid sspstrong uwtable
define internal void @rr_timing_ofs_value_fmt(ptr noundef %0, i32 noundef %1) #1 {
  %3 = alloca ptr, align 8
  %4 = alloca i32, align 4
  %5 = alloca i32, align 4
  store ptr %0, ptr %3, align 8
  store i32 %1, ptr %4, align 4
  call void @llvm.lifetime.start.p0(i64 4, ptr %5) #5
  %6 = load i32, ptr %4, align 4
  store i32 %6, ptr %5, align 4
  %7 = load ptr, ptr %3, align 8
  %8 = load ptr, ptr %3, align 8
  %9 = call i64 @llvm.objectsize.i64.p0(ptr %8, i1 false, i1 true, i1 true)
  %10 = load i32, ptr %5, align 4
  %11 = sitofp i32 %10 to float
  %12 = fdiv float %11, 4.000000e+01
  %13 = fpext float %12 to double
  %14 = load i32, ptr %5, align 4
  %15 = sitofp i32 %14 to float
  %16 = fdiv float %15, 4.000000e+01
  %17 = fmul float %16, 0x3FA5E15E20000000
  %18 = fpext float %17 to double
  %19 = call i32 (ptr, i64, i32, i64, ptr, ...) @__snprintf_chk(ptr noundef %7, i64 noundef 240, i32 noundef 2, i64 noundef %9, ptr noundef @.str.350, double noundef %13, double noundef %18)
  call void @llvm.lifetime.end.p0(i64 4, ptr %5) #5
  ret void
}