; Function Attrs: nofree null_pointer_is_valid sspstrong uwtable
define internal void @rr_timing_ofs_value_fmt(ptr noundef %0, i32 noundef %1) #3 {
  %3 = sitofp i32 %1 to float
  %4 = fdiv float %3, 4.000000e+01
  %5 = fpext float %4 to double
  %6 = fmul float %4, 0x3FA5E15E20000000
  %7 = fpext float %6 to double
  %8 = tail call i32 (ptr, i64, i32, i64, ptr, ...) @__snprintf_chk(ptr noundef %0, i64 noundef 240, i32 noundef 2, i64 noundef -1, ptr noundef nonnull @.str.350, double noundef %5, double noundef %7)
  ret void
}